target datalayout = "e-m:e-p270:32:32-p271:32:32-p272:64:64-i64:64-i128:128-f80:128-n8:16:32:64-S128"
target triple = "x86_64-pc-linux-gnu"

%struct.BuildAccumulator = type { ptr, i64, ptr, i32, ptr, %struct.RBTreeIterator }
%struct.RBTreeIterator = type { ptr, ptr, ptr, i8 }
%struct.GinEntryAccumulator = type { %struct.RBTNode, i64, i8, i16, i8, ptr, i32, i32 }
%struct.RBTNode = type { i8, ptr, ptr, ptr }

; Function Attrs: nounwind uwtable
define internal ptr @ginAllocEntryAccumulator(ptr noundef %0) #0 {
  %2 = alloca ptr, align 8
  %3 = alloca ptr, align 8
  %4 = alloca ptr, align 8
  store ptr %0, ptr %2, align 8
  call void @llvm.lifetime.start.p0(i64 8, ptr %3) #6
  %5 = load ptr, ptr %2, align 8
  store ptr %5, ptr %3, align 8
  call void @llvm.lifetime.start.p0(i64 8, ptr %4) #6
  %6 = load ptr, ptr %3, align 8
  %7 = getelementptr inbounds nuw %struct.BuildAccumulator, ptr %6, i32 0, i32 2
  %8 = load ptr, ptr %7, align 8
  %9 = icmp eq ptr %8, null
  br i1 %9, label %15, label %10

10:                                               ; preds = %1
  %11 = load ptr, ptr %3, align 8
  %12 = getelementptr inbounds nuw %struct.BuildAccumulator, ptr %11, i32 0, i32 3
  %13 = load i32, ptr %12, align 8
  %14 = icmp uge i32 %13, 2048
  br i1 %14, label %15, label %29

15:                                               ; preds = %10, %1
  %16 = call ptr @palloc(i64 noundef 131072)
  %17 = load ptr, ptr %3, align 8
  %18 = getelementptr inbounds nuw %struct.BuildAccumulator, ptr %17, i32 0, i32 2
  store ptr %16, ptr %18, align 8
  %19 = load ptr, ptr %3, align 8
  %20 = getelementptr inbounds nuw %struct.BuildAccumulator, ptr %19, i32 0, i32 2
  %21 = load ptr, ptr %20, align 8
  %22 = call i64 @GetMemoryChunkSpace(ptr noundef %21)
  %23 = load ptr, ptr %3, align 8
  %24 = getelementptr inbounds nuw %struct.BuildAccumulator, ptr %23, i32 0, i32 1
  %25 = load i64, ptr %24, align 8
  %26 = add i64 %25, %22
  store i64 %26, ptr %24, align 8
  %27 = load ptr, ptr %3, align 8
  %28 = getelementptr inbounds nuw %struct.BuildAccumulator, ptr %27, i32 0, i32 3
  store i32 0, ptr %28, align 8
  br label %29

29:                                               ; preds = %15, %10
  %30 = load ptr, ptr %3, align 8
  %31 = getelementptr inbounds nuw %struct.BuildAccumulator, ptr %30, i32 0, i32 2
  %32 = load ptr, ptr %31, align 8
  %33 = load ptr, ptr %3, align 8
  %34 = getelementptr inbounds nuw %struct.BuildAccumulator, ptr %33, i32 0, i32 3
  %35 = load i32, ptr %34, align 8
  %36 = zext i32 %35 to i64
  %37 = getelementptr inbounds nuw %struct.GinEntryAccumulator, ptr %32, i64 %36
  store ptr %37, ptr %4, align 8
  %38 = load ptr, ptr %3, align 8
  %39 = getelementptr inbounds nuw %struct.BuildAccumulator, ptr %38, i32 0, i32 3
  %40 = load i32, ptr %39, align 8
  %41 = add i32 %40, 1
  store i32 %41, ptr %39, align 8
  %42 = load ptr, ptr %4, align 8
  call void @llvm.lifetime.end.p0(i64 8, ptr %4) #6
  call void @llvm.lifetime.end.p0(i64 8, ptr %3) #6
  ret ptr %42
}