; Function Attrs: nounwind uwtable
define internal ptr @ginAllocEntryAccumulator(ptr noundef captures(none) %0) #0 {
  %2 = getelementptr inbounds nuw i8, ptr %0, i64 16
  %3 = load ptr, ptr %2, align 8
  %4 = icmp eq ptr %3, null
  br i1 %4, label %9, label %5

5:                                                ; preds = %1
  %6 = getelementptr inbounds nuw i8, ptr %0, i64 24
  %7 = load i32, ptr %6, align 8
  %8 = icmp ugt i32 %7, 2047
  br i1 %8, label %9, label %15

9:                                                ; preds = %5, %1
  %10 = tail call ptr @palloc(i64 noundef 131072) #9
  store ptr %10, ptr %2, align 8
  %11 = tail call i64 @GetMemoryChunkSpace(ptr noundef %10) #9
  %12 = getelementptr inbounds nuw i8, ptr %0, i64 8
  %13 = load i64, ptr %12, align 8
  %14 = add i64 %13, %11
  store i64 %14, ptr %12, align 8
  %.pre = load ptr, ptr %2, align 8
  br label %15

15:                                               ; preds = %9, %5
  %16 = phi i32 [ 0, %9 ], [ %7, %5 ]
  %17 = phi ptr [ %.pre, %9 ], [ %3, %5 ]
  %18 = getelementptr inbounds nuw i8, ptr %0, i64 24
  %19 = zext nneg i32 %16 to i64
  %20 = getelementptr inbounds nuw %struct.GinEntryAccumulator, ptr %17, i64 %19
  %21 = add nuw nsw i32 %16, 1
  store i32 %21, ptr %18, align 8
  ret ptr %20
}